; Function Attrs: nounwind uwtable
define dso_local void @monitorCommand(ptr noundef %c) local_unnamed_addr #0 {
entry:
  %flags = getelementptr inbounds i8, ptr %c, i64 8
  %0 = load i64, ptr %flags, align 8
  %and = and i64 %0, 2199023255552
  %tobool.not = icmp eq i64 %and, 0
  br i1 %tobool.not, label %if.end, label %if.then

if.then:                                          ; preds = %entry
  tail call void @addReplyError(ptr noundef nonnull %c, ptr noundef nonnull @.str.398) #38
  br label %return

if.end:                                           ; preds = %entry
  %and2 = and i64 %0, 1
  %tobool3.not = icmp eq i64 %and2, 0
  br i1 %tobool3.not, label %if.end5, label %return

if.end5:                                          ; preds = %if.end
  %or = or i64 %0, 5
  store i64 %or, ptr %flags, align 8
  %1 = load ptr, ptr getelementptr inbounds (%struct.redisServer, ptr @server, i64 0, i32 60), align 8
  %call = tail call ptr @listAddNodeTail(ptr noundef %1, ptr noundef nonnull %c) #38
  %2 = load ptr, ptr @shared, align 8
  tail call void @addReply(ptr noundef nonnull %c, ptr noundef %2) #38
  br label %return

return:                                           ; preds = %if.end, %if.end5, %if.then
  ret void
}